target datalayout = "e-m:e-p270:32:32-p271:32:32-p272:64:64-i64:64-i128:128-f80:128-n8:16:32:64-S128"
target triple = "x86_64-pc-linux-gnu"

%class.cmUVProcessChain = type { %"class.std::unique_ptr" }
%"class.std::unique_ptr" = type { %"struct.std::__uniq_ptr_data" }
%"struct.std::__uniq_ptr_data" = type { %"class.std::__uniq_ptr_impl" }
%"class.std::__uniq_ptr_impl" = type { %"class.std::tuple" }
%"class.std::tuple" = type { %"struct.std::_Tuple_impl" }
%"struct.std::_Tuple_impl" = type { %"struct.std::_Head_base.13" }
%"struct.std::_Head_base.13" = type { ptr }

; Function Attrs: mustprogress nounwind uwtable
define linkonce_odr dso_local noundef nonnull align 1 dereferenceable(1) ptr @_ZNSt10_Head_baseILm1ESt14default_deleteIN16cmUVProcessChain12InternalDataEELb1EE7_M_headERS4_(ptr noundef nonnull align 1 dereferenceable(1) %0) #0 comdat align 2 {
  %2 = alloca ptr, align 8
  store ptr %0, ptr %2, align 8
  %3 = load ptr, ptr %2, align 8
  ret ptr %3
}

; Function Attrs: mustprogress nounwind uwtable
define linkonce_odr dso_local noundef nonnull align 1 dereferenceable(1) ptr @_ZNSt11_Tuple_implILm1EJSt14default_deleteIN16cmUVProcessChain12InternalDataEEEE7_M_headERS4_(ptr noundef nonnull align 1 dereferenceable(1) %0) #0 comdat align 2 {
  %2 = alloca ptr, align 8
  store ptr %0, ptr %2, align 8
  %3 = load ptr, ptr %2, align 8
  %4 = call noundef nonnull align 1 dereferenceable(1) ptr @_ZNSt10_Head_baseILm1ESt14default_deleteIN16cmUVProcessChain12InternalDataEELb1EE7_M_headERS4_(ptr noundef nonnull align 1 dereferenceable(1) %3) #12
  ret ptr %4
}

; Function Attrs: mustprogress nounwind uwtable
define linkonce_odr dso_local noundef nonnull align 8 dereferenceable(8) ptr @_ZNSt10_Head_baseILm0EPN16cmUVProcessChain12InternalDataELb0EE7_M_headERS3_(ptr noundef nonnull align 8 dereferenceable(8) %0) #0 comdat align 2 {
  %2 = alloca ptr, align 8
  store ptr %0, ptr %2, align 8
  %3 = load ptr, ptr %2, align 8
  %4 = getelementptr inbounds %"struct.std::_Head_base.13", ptr %3, i32 0, i32 0
  ret ptr %4
}

; Function Attrs: mustprogress nounwind uwtable
define linkonce_odr dso_local noundef nonnull align 1 dereferenceable(1) ptr @_ZSt12__get_helperILm1ESt14default_deleteIN16cmUVProcessChain12InternalDataEEJEERT0_RSt11_Tuple_implIXT_EJS4_DpT1_EE(ptr noundef nonnull align 1 dereferenceable(1) %0) #0 comdat {
  %2 = alloca ptr, align 8
  store ptr %0, ptr %2, align 8
  %3 = load ptr, ptr %2, align 8
  %4 = call noundef nonnull align 1 dereferenceable(1) ptr @_ZNSt11_Tuple_implILm1EJSt14default_deleteIN16cmUVProcessChain12InternalDataEEEE7_M_headERS4_(ptr noundef nonnull align 1 dereferenceable(1) %3) #12
  ret ptr %4
}

; Function Attrs: mustprogress nounwind uwtable
define linkonce_odr dso_local noundef nonnull align 8 dereferenceable(8) ptr @_ZNSt11_Tuple_implILm0EJPN16cmUVProcessChain12InternalDataESt14default_deleteIS1_EEE7_M_headERS5_(ptr noundef nonnull align 8 dereferenceable(8) %0) #0 comdat align 2 {
  %2 = alloca ptr, align 8
  store ptr %0, ptr %2, align 8
  %3 = load ptr, ptr %2, align 8
  %4 = call noundef nonnull align 8 dereferenceable(8) ptr @_ZNSt10_Head_baseILm0EPN16cmUVProcessChain12InternalDataELb0EE7_M_headERS3_(ptr noundef nonnull align 8 dereferenceable(8) %3) #12
  ret ptr %4
}

; Function Attrs: mustprogress nounwind uwtable
define linkonce_odr dso_local noundef nonnull align 1 dereferenceable(1) ptr @_ZSt3getILm1EJPN16cmUVProcessChain12InternalDataESt14default_deleteIS1_EEERNSt13tuple_elementIXT_ESt5tupleIJDpT0_EEE4typeERS9_(ptr noundef nonnull align 8 dereferenceable(8) %0) #0 comdat {
  %2 = alloca ptr, align 8
  store ptr %0, ptr %2, align 8
  %3 = load ptr, ptr %2, align 8
  %4 = call noundef nonnull align 1 dereferenceable(1) ptr @_ZSt12__get_helperILm1ESt14default_deleteIN16cmUVProcessChain12InternalDataEEJEERT0_RSt11_Tuple_implIXT_EJS4_DpT1_EE(ptr noundef nonnull align 1 dereferenceable(1) %3) #12
  ret ptr %4
}

; Function Attrs: mustprogress nounwind uwtable
define linkonce_odr dso_local noundef nonnull align 8 dereferenceable(8) ptr @_ZSt12__get_helperILm0EPN16cmUVProcessChain12InternalDataEJSt14default_deleteIS1_EEERT0_RSt11_Tuple_implIXT_EJS5_DpT1_EE(ptr noundef nonnull align 8 dereferenceable(8) %0) #0 comdat {
  %2 = alloca ptr, align 8
  store ptr %0, ptr %2, align 8
  %3 = load ptr, ptr %2, align 8
  %4 = call noundef nonnull align 8 dereferenceable(8) ptr @_ZNSt11_Tuple_implILm0EJPN16cmUVProcessChain12InternalDataESt14default_deleteIS1_EEE7_M_headERS5_(ptr noundef nonnull align 8 dereferenceable(8) %3) #12
  ret ptr %4
}

; Function Attrs: mustprogress nounwind uwtable
define linkonce_odr dso_local noundef nonnull align 1 dereferenceable(1) ptr @_ZNSt15__uniq_ptr_implIN16cmUVProcessChain12InternalDataESt14default_deleteIS1_EE10_M_deleterEv(ptr noundef nonnull align 8 dereferenceable(8) %0) #0 comdat align 2 {
  %2 = alloca ptr, align 8
  store ptr %0, ptr %2, align 8
  %3 = load ptr, ptr %2, align 8
  %4 = getelementptr inbounds %"class.std::__uniq_ptr_impl", ptr %3, i32 0, i32 0
  %5 = call noundef nonnull align 1 dereferenceable(1) ptr @_ZSt3getILm1EJPN16cmUVProcessChain12InternalDataESt14default_deleteIS1_EEERNSt13tuple_elementIXT_ESt5tupleIJDpT0_EEE4typeERS9_(ptr noundef nonnull align 8 dereferenceable(8) %4) #12
  ret ptr %5
}

; Function Attrs: mustprogress nounwind uwtable
define linkonce_odr dso_local noundef nonnull align 8 dereferenceable(8) ptr @_ZSt3getILm0EJPN16cmUVProcessChain12InternalDataESt14default_deleteIS1_EEERNSt13tuple_elementIXT_ESt5tupleIJDpT0_EEE4typeERS9_(ptr noundef nonnull align 8 dereferenceable(8) %0) #0 comdat {
  %2 = alloca ptr, align 8
  store ptr %0, ptr %2, align 8
  %3 = load ptr, ptr %2, align 8
  %4 = call noundef nonnull align 8 dereferenceable(8) ptr @_ZSt12__get_helperILm0EPN16cmUVProcessChain12InternalDataEJSt14default_deleteIS1_EEERT0_RSt11_Tuple_implIXT_EJS5_DpT1_EE(ptr noundef nonnull align 8 dereferenceable(8) %3) #12
  ret ptr %4
}

; Function Attrs: mustprogress nounwind uwtable
define linkonce_odr dso_local void @_ZNKSt14default_deleteIN16cmUVProcessChain12InternalDataEEclEPS1_(ptr noundef nonnull align 1 dereferenceable(1) %0, ptr noundef %1) #0 comdat align 2 {
  %3 = alloca ptr, align 8
  %4 = alloca ptr, align 8
  store ptr %0, ptr %3, align 8
  store ptr %1, ptr %4, align 8
  %5 = load ptr, ptr %4, align 8
  %6 = icmp eq ptr %5, null
  br i1 %6, label %8, label %7

7:                                                ; preds = %2
  call void @_ZN16cmUVProcessChain12InternalDataD2Ev(ptr noundef nonnull align 8 dereferenceable(176) %5) #12
  call void @_ZdlPv(ptr noundef %5) #15
  br label %8

8:                                                ; preds = %7, %2
  ret void
}

; Function Attrs: mustprogress nounwind uwtable
define linkonce_odr dso_local noundef nonnull align 1 dereferenceable(1) ptr @_ZNSt10unique_ptrIN16cmUVProcessChain12InternalDataESt14default_deleteIS1_EE11get_deleterEv(ptr noundef nonnull align 8 dereferenceable(8) %0) #0 comdat align 2 {
  %2 = alloca ptr, align 8
  store ptr %0, ptr %2, align 8
  %3 = load ptr, ptr %2, align 8
  %4 = getelementptr inbounds %"class.std::unique_ptr", ptr %3, i32 0, i32 0
  %5 = call noundef nonnull align 1 dereferenceable(1) ptr @_ZNSt15__uniq_ptr_implIN16cmUVProcessChain12InternalDataESt14default_deleteIS1_EE10_M_deleterEv(ptr noundef nonnull align 8 dereferenceable(8) %4) #12
  ret ptr %5
}

; Function Attrs: mustprogress nounwind uwtable
define linkonce_odr dso_local noundef nonnull align 8 dereferenceable(8) ptr @_ZNSt15__uniq_ptr_implIN16cmUVProcessChain12InternalDataESt14default_deleteIS1_EE6_M_ptrEv(ptr noundef nonnull align 8 dereferenceable(8) %0) #0 comdat align 2 {
  %2 = alloca ptr, align 8
  store ptr %0, ptr %2, align 8
  %3 = load ptr, ptr %2, align 8
  %4 = getelementptr inbounds %"class.std::__uniq_ptr_impl", ptr %3, i32 0, i32 0
  %5 = call noundef nonnull align 8 dereferenceable(8) ptr @_ZSt3getILm0EJPN16cmUVProcessChain12InternalDataESt14default_deleteIS1_EEERNSt13tuple_elementIXT_ESt5tupleIJDpT0_EEE4typeERS9_(ptr noundef nonnull align 8 dereferenceable(8) %4) #12
  ret ptr %5
}

; Function Attrs: mustprogress nounwind uwtable
define linkonce_odr dso_local void @_ZNSt10unique_ptrIN16cmUVProcessChain12InternalDataESt14default_deleteIS1_EED2Ev(ptr noundef nonnull align 8 dereferenceable(8) %0) unnamed_addr #0 comdat align 2 {
  %2 = alloca ptr, align 8
  %3 = alloca ptr, align 8
  store ptr %0, ptr %2, align 8
  %4 = load ptr, ptr %2, align 8
  %5 = getelementptr inbounds %"class.std::unique_ptr", ptr %4, i32 0, i32 0
  %6 = call noundef nonnull align 8 dereferenceable(8) ptr @_ZNSt15__uniq_ptr_implIN16cmUVProcessChain12InternalDataESt14default_deleteIS1_EE6_M_ptrEv(ptr noundef nonnull align 8 dereferenceable(8) %5) #12
  store ptr %6, ptr %3, align 8
  %7 = load ptr, ptr %3, align 8
  %8 = load ptr, ptr %7, align 8
  %9 = icmp ne ptr %8, null
  br i1 %9, label %10, label %14

10:                                               ; preds = %1
  %11 = call noundef nonnull align 1 dereferenceable(1) ptr @_ZNSt10unique_ptrIN16cmUVProcessChain12InternalDataESt14default_deleteIS1_EE11get_deleterEv(ptr noundef nonnull align 8 dereferenceable(8) %4) #12
  %12 = load ptr, ptr %3, align 8
  %13 = load ptr, ptr %12, align 8
  call void @_ZNKSt14default_deleteIN16cmUVProcessChain12InternalDataEEclEPS1_(ptr noundef nonnull align 1 dereferenceable(1) %11, ptr noundef %13)
  br label %14

14:                                               ; preds = %10, %1
  %15 = load ptr, ptr %3, align 8
  store ptr null, ptr %15, align 8
  ret void
}

; Function Attrs: mustprogress nounwind uwtable
define dso_local void @_ZN16cmUVProcessChainD2Ev(ptr noundef nonnull align 8 dereferenceable(8) %0) unnamed_addr #0 align 2 {
  %2 = alloca ptr, align 8
  store ptr %0, ptr %2, align 8
  %3 = load ptr, ptr %2, align 8
  %4 = getelementptr inbounds %class.cmUVProcessChain, ptr %3, i32 0, i32 0
  call void @_ZNSt10unique_ptrIN16cmUVProcessChain12InternalDataESt14default_deleteIS1_EED2Ev(ptr noundef nonnull align 8 dereferenceable(8) %4) #12
  ret void
}