; Function Attrs: mustprogress nounwind uwtable
define dso_local void @_ZN16cmUVProcessChainD2Ev(ptr noundef nonnull align 8 captures(none) dereferenceable(8) %0) unnamed_addr #0 align 2 {
  %2 = load ptr, ptr %0, align 8
  %.not.i = icmp eq ptr %2, null
  br i1 %.not.i, label %_ZNSt10unique_ptrIN16cmUVProcessChain12InternalDataESt14default_deleteIS1_EED2Ev.exit, label %_ZNKSt14default_deleteIN16cmUVProcessChain12InternalDataEEclEPS1_.exit.i

_ZNKSt14default_deleteIN16cmUVProcessChain12InternalDataEEclEPS1_.exit.i: ; preds = %1
  tail call void @_ZN16cmUVProcessChain12InternalDataD2Ev(ptr noundef nonnull align 8 dereferenceable(176) %2) #22
  tail call void @_ZdlPv(ptr noundef nonnull %2) #23
  br label %_ZNSt10unique_ptrIN16cmUVProcessChain12InternalDataESt14default_deleteIS1_EED2Ev.exit

_ZNSt10unique_ptrIN16cmUVProcessChain12InternalDataESt14default_deleteIS1_EED2Ev.exit: ; preds = %1, %_ZNKSt14default_deleteIN16cmUVProcessChain12InternalDataEEclEPS1_.exit.i
  store ptr null, ptr %0, align 8
  ret void
}